target datalayout = "e-m:e-p270:32:32-p271:32:32-p272:64:64-i64:64-i128:128-f80:128-n8:16:32:64-S128"
target triple = "x86_64-pc-linux-gnu"

%struct.object_id = type { [32 x i8], i32 }
%struct.diff_filespec = type { %struct.object_id, ptr, ptr, ptr, i64, i32, i32, i16, i16, ptr }

@.str = private unnamed_addr constant [27 x i8] c"size_t overflow: %lu * %lu\00", align 1
@.str.8 = private unnamed_addr constant [20 x i8] c"Cannot read blob %s\00", align 1

; Function Attrs: inlinehint nounwind uwtable
define internal i64 @st_mult(i64 noundef %0, i64 noundef %1) #3 {
  %3 = alloca i64, align 8
  %4 = alloca i64, align 8
  store i64 %0, ptr %3, align 8, !tbaa !9
  store i64 %1, ptr %4, align 8, !tbaa !9
  %5 = load i64, ptr %3, align 8, !tbaa !9
  %6 = icmp ne i64 %5, 0
  br i1 %6, label %7, label %15

7:                                                ; preds = %2
  %8 = load i64, ptr %4, align 8, !tbaa !9
  %9 = load i64, ptr %3, align 8, !tbaa !9
  %10 = udiv i64 -1, %9
  %11 = icmp ugt i64 %8, %10
  br i1 %11, label %12, label %15

12:                                               ; preds = %7
  %13 = load i64, ptr %3, align 8, !tbaa !9
  %14 = load i64, ptr %4, align 8, !tbaa !9
  call void (ptr, ...) @die(ptr noundef @.str, i64 noundef %13, i64 noundef %14) #10
  unreachable

15:                                               ; preds = %7, %2
  %16 = load i64, ptr %3, align 8, !tbaa !9
  %17 = load i64, ptr %4, align 8, !tbaa !9
  %18 = mul i64 %16, %17
  ret i64 %18
}

; Function Attrs: nounwind uwtable
define internal void @fill_line_ends(ptr noundef %0, ptr noundef %1, ptr noundef %2, ptr noundef %3) #0 {
  %5 = alloca ptr, align 8
  %6 = alloca ptr, align 8
  %7 = alloca ptr, align 8
  %8 = alloca ptr, align 8
  %9 = alloca i32, align 4
  %10 = alloca i32, align 4
  %11 = alloca i64, align 8
  %12 = alloca ptr, align 8
  %13 = alloca ptr, align 8
  store ptr %0, ptr %5, align 8, !tbaa !92
  store ptr %1, ptr %6, align 8, !tbaa !119
  store ptr %2, ptr %7, align 8, !tbaa !93
  store ptr %3, ptr %8, align 8, !tbaa !177
  call void @llvm.lifetime.start.p0(i64 4, ptr %9) #9
  store i32 0, ptr %9, align 4, !tbaa !20
  call void @llvm.lifetime.start.p0(i64 4, ptr %10) #9
  store i32 50, ptr %10, align 4, !tbaa !20
  call void @llvm.lifetime.start.p0(i64 8, ptr %11) #9
  store i64 0, ptr %11, align 8, !tbaa !9
  call void @llvm.lifetime.start.p0(i64 8, ptr %12) #9
  store ptr null, ptr %12, align 8, !tbaa !93
  call void @llvm.lifetime.start.p0(i64 8, ptr %13) #9
  store ptr null, ptr %13, align 8, !tbaa !28
  %14 = load ptr, ptr %5, align 8, !tbaa !92
  %15 = load ptr, ptr %6, align 8, !tbaa !119
  %16 = call i32 @diff_populate_filespec(ptr noundef %14, ptr noundef %15, ptr noundef null)
  %17 = icmp ne i32 %16, 0
  br i1 %17, label %18, label %22

18:                                               ; preds = %4
  %19 = load ptr, ptr %6, align 8, !tbaa !119
  %20 = getelementptr inbounds nuw %struct.diff_filespec, ptr %19, i32 0, i32 0
  %21 = call ptr @oid_to_hex(ptr noundef %20)
  call void (ptr, ...) @die(ptr noundef @.str.8, ptr noundef %21) #10
  unreachable

22:                                               ; preds = %4
  %23 = load i32, ptr %10, align 4, !tbaa !20
  %24 = sext i32 %23 to i64
  %25 = call i64 @st_mult(i64 noundef 8, i64 noundef %24)
  %26 = call ptr @xmalloc(i64 noundef %25)
  store ptr %26, ptr %12, align 8, !tbaa !93
  %27 = load ptr, ptr %12, align 8, !tbaa !93
  %28 = load i64, ptr %11, align 8, !tbaa !9
  %29 = add nsw i64 %28, 1
  store i64 %29, ptr %11, align 8, !tbaa !9
  %30 = getelementptr inbounds i64, ptr %27, i64 %28
  store i64 0, ptr %30, align 8, !tbaa !9
  %31 = load ptr, ptr %6, align 8, !tbaa !119
  %32 = getelementptr inbounds nuw %struct.diff_filespec, ptr %31, i32 0, i32 2
  %33 = load ptr, ptr %32, align 8, !tbaa !179
  store ptr %33, ptr %13, align 8, !tbaa !28
  br label %34

34:                                               ; preds = %97, %22
  %35 = load i32, ptr %9, align 4, !tbaa !20
  %36 = sext i32 %35 to i64
  %37 = load ptr, ptr %6, align 8, !tbaa !119
  %38 = getelementptr inbounds nuw %struct.diff_filespec, ptr %37, i32 0, i32 4
  %39 = load i64, ptr %38, align 8, !tbaa !180
  %40 = icmp ult i64 %36, %39
  br i1 %40, label %41, label %100

41:                                               ; preds = %34
  %42 = load ptr, ptr %13, align 8, !tbaa !28
  %43 = load i32, ptr %9, align 4, !tbaa !20
  %44 = sext i32 %43 to i64
  %45 = getelementptr inbounds i8, ptr %42, i64 %44
  %46 = load i8, ptr %45, align 1, !tbaa !118
  %47 = sext i8 %46 to i32
  %48 = icmp eq i32 %47, 10
  br i1 %48, label %57, label %49

49:                                               ; preds = %41
  %50 = load i32, ptr %9, align 4, !tbaa !20
  %51 = sext i32 %50 to i64
  %52 = load ptr, ptr %6, align 8, !tbaa !119
  %53 = getelementptr inbounds nuw %struct.diff_filespec, ptr %52, i32 0, i32 4
  %54 = load i64, ptr %53, align 8, !tbaa !180
  %55 = sub i64 %54, 1
  %56 = icmp eq i64 %51, %55
  br i1 %56, label %57, label %97

57:                                               ; preds = %49, %41
  br label %58

58:                                               ; preds = %57
  %59 = load i64, ptr %11, align 8, !tbaa !9
  %60 = add nsw i64 %59, 1
  %61 = load i32, ptr %10, align 4, !tbaa !20
  %62 = sext i32 %61 to i64
  %63 = icmp sgt i64 %60, %62
  br i1 %63, label %64, label %88

64:                                               ; preds = %58
  %65 = load i32, ptr %10, align 4, !tbaa !20
  %66 = add nsw i32 %65, 16
  %67 = mul nsw i32 %66, 3
  %68 = sdiv i32 %67, 2
  %69 = sext i32 %68 to i64
  %70 = load i64, ptr %11, align 8, !tbaa !9
  %71 = add nsw i64 %70, 1
  %72 = icmp slt i64 %69, %71
  br i1 %72, label %73, label %77

73:                                               ; preds = %64
  %74 = load i64, ptr %11, align 8, !tbaa !9
  %75 = add nsw i64 %74, 1
  %76 = trunc i64 %75 to i32
  store i32 %76, ptr %10, align 4, !tbaa !20
  br label %82

77:                                               ; preds = %64
  %78 = load i32, ptr %10, align 4, !tbaa !20
  %79 = add nsw i32 %78, 16
  %80 = mul nsw i32 %79, 3
  %81 = sdiv i32 %80, 2
  store i32 %81, ptr %10, align 4, !tbaa !20
  br label %82

82:                                               ; preds = %77, %73
  %83 = load ptr, ptr %12, align 8, !tbaa !93
  %84 = load i32, ptr %10, align 4, !tbaa !20
  %85 = sext i32 %84 to i64
  %86 = call i64 @st_mult(i64 noundef 8, i64 noundef %85)
  %87 = call ptr @xrealloc(ptr noundef %83, i64 noundef %86)
  store ptr %87, ptr %12, align 8, !tbaa !93
  br label %88

88:                                               ; preds = %82, %58
  br label %89

89:                                               ; preds = %88
  br label %90

90:                                               ; preds = %89
  %91 = load i32, ptr %9, align 4, !tbaa !20
  %92 = sext i32 %91 to i64
  %93 = load ptr, ptr %12, align 8, !tbaa !93
  %94 = load i64, ptr %11, align 8, !tbaa !9
  %95 = add nsw i64 %94, 1
  store i64 %95, ptr %11, align 8, !tbaa !9
  %96 = getelementptr inbounds i64, ptr %93, i64 %94
  store i64 %92, ptr %96, align 8, !tbaa !9
  br label %97

97:                                               ; preds = %90, %49
  %98 = load i32, ptr %9, align 4, !tbaa !20
  %99 = add nsw i32 %98, 1
  store i32 %99, ptr %9, align 4, !tbaa !20
  br label %34, !llvm.loop !181

100:                                              ; preds = %34
  %101 = load ptr, ptr %12, align 8, !tbaa !93
  %102 = load i64, ptr %11, align 8, !tbaa !9
  %103 = call i64 @st_mult(i64 noundef 8, i64 noundef %102)
  %104 = call ptr @xrealloc(ptr noundef %101, i64 noundef %103)
  store ptr %104, ptr %12, align 8, !tbaa !93
  %105 = load i64, ptr %11, align 8, !tbaa !9
  %106 = sub nsw i64 %105, 1
  %107 = load ptr, ptr %7, align 8, !tbaa !93
  store i64 %106, ptr %107, align 8, !tbaa !9
  %108 = load ptr, ptr %12, align 8, !tbaa !93
  %109 = load ptr, ptr %8, align 8, !tbaa !177
  store ptr %108, ptr %109, align 8, !tbaa !93
  call void @llvm.lifetime.end.p0(i64 8, ptr %13) #9
  call void @llvm.lifetime.end.p0(i64 8, ptr %12) #9
  call void @llvm.lifetime.end.p0(i64 8, ptr %11) #9
  call void @llvm.lifetime.end.p0(i64 4, ptr %10) #9
  call void @llvm.lifetime.end.p0(i64 4, ptr %9) #9
  ret void
}