; Function Attrs: nounwind uwtable
define internal fastcc void @fill_line_ends(ptr noundef %0, ptr noundef %1, ptr noundef nonnull writeonly captures(none) %2, ptr noundef nonnull writeonly captures(none) %3) unnamed_addr #0 {
  %5 = tail call i32 @diff_populate_filespec(ptr noundef %0, ptr noundef %1, ptr noundef null) #16
  %.not = icmp eq i32 %5, 0
  br i1 %.not, label %8, label %6

6:                                                ; preds = %4
  %7 = tail call ptr @oid_to_hex(ptr noundef %1) #16
  tail call void (ptr, ...) @die(ptr noundef nonnull @.str.8, ptr noundef %7) #17
  unreachable

8:                                                ; preds = %4
  %9 = tail call ptr @xmalloc(i64 noundef 400) #16
  store i64 0, ptr %9, align 8, !tbaa !76
  %10 = getelementptr inbounds nuw i8, ptr %1, i64 48
  %11 = load ptr, ptr %10, align 8, !tbaa !141
  %12 = getelementptr inbounds nuw i8, ptr %1, i64 64
  %13 = load i64, ptr %12, align 8, !tbaa !170
  %.not52 = icmp eq i64 %13, 0
  br i1 %.not52, label %st_mult.exit44, label %.lr.ph

.lr.ph:                                           ; preds = %8, %35
  %14 = phi i64 [ %36, %35 ], [ %13, %8 ]
  %indvars.iv = phi i64 [ %indvars.iv.next, %35 ], [ 0, %8 ]
  %.050 = phi ptr [ %.1, %35 ], [ %9, %8 ]
  %.03049 = phi i64 [ %.131, %35 ], [ 1, %8 ]
  %.03248 = phi i32 [ %.133, %35 ], [ 50, %8 ]
  %15 = getelementptr inbounds nuw i8, ptr %11, i64 %indvars.iv
  %16 = load i8, ptr %15, align 1, !tbaa !101
  %17 = icmp eq i8 %16, 10
  %18 = add i64 %14, -1
  %19 = icmp eq i64 %18, %indvars.iv
  %or.cond = or i1 %19, %17
  br i1 %or.cond, label %20, label %35

20:                                               ; preds = %.lr.ph
  %21 = add nsw i64 %.03049, 1
  %22 = sext i32 %.03248 to i64
  %.not39 = icmp slt i64 %.03049, %22
  br i1 %.not39, label %33, label %23

23:                                               ; preds = %20
  %24 = mul i32 %.03248, 3
  %25 = add i32 %24, 48
  %26 = sdiv i32 %25, 2
  %27 = sext i32 %26 to i64
  %.not40 = icmp slt i64 %.03049, %27
  %28 = trunc i64 %21 to i32
  %.234 = select i1 %.not40, i32 %26, i32 %28
  %29 = sext i32 %.234 to i64
  %mul.ov.i = icmp slt i32 %.234, 0
  br i1 %mul.ov.i, label %30, label %st_mult.exit

30:                                               ; preds = %23
  tail call void (ptr, ...) @die(ptr noundef nonnull @.str, i64 noundef 8, i64 noundef %29) #17
  unreachable

st_mult.exit:                                     ; preds = %23
  %31 = shl nuw nsw i64 %29, 3
  %32 = tail call ptr @xrealloc(ptr noundef %.050, i64 noundef %31) #16
  br label %33

33:                                               ; preds = %st_mult.exit, %20
  %.3 = phi i32 [ %.234, %st_mult.exit ], [ %.03248, %20 ]
  %.2 = phi ptr [ %32, %st_mult.exit ], [ %.050, %20 ]
  %34 = getelementptr inbounds i64, ptr %.2, i64 %.03049
  store i64 %indvars.iv, ptr %34, align 8, !tbaa !76
  %.pre = load i64, ptr %12, align 8, !tbaa !170
  br label %35

35:                                               ; preds = %.lr.ph, %33
  %36 = phi i64 [ %.pre, %33 ], [ %14, %.lr.ph ]
  %.133 = phi i32 [ %.3, %33 ], [ %.03248, %.lr.ph ]
  %.131 = phi i64 [ %21, %33 ], [ %.03049, %.lr.ph ]
  %.1 = phi ptr [ %.2, %33 ], [ %.050, %.lr.ph ]
  %indvars.iv.next = add nuw nsw i64 %indvars.iv, 1
  %37 = icmp ugt i64 %36, %indvars.iv.next
  br i1 %37, label %.lr.ph, label %._crit_edge, !llvm.loop !171

._crit_edge:                                      ; preds = %35
  %mul.ov.i43 = icmp ugt i64 %.131, 2305843009213693951
  br i1 %mul.ov.i43, label %38, label %st_mult.exit44

38:                                               ; preds = %._crit_edge
  tail call void (ptr, ...) @die(ptr noundef nonnull @.str, i64 noundef 8, i64 noundef %.131) #17
  unreachable

st_mult.exit44:                                   ; preds = %8, %._crit_edge
  %.0.lcssa58 = phi ptr [ %.1, %._crit_edge ], [ %9, %8 ]
  %.030.lcssa57 = phi i64 [ %.131, %._crit_edge ], [ 1, %8 ]
  %39 = shl nuw i64 %.030.lcssa57, 3
  %40 = tail call ptr @xrealloc(ptr noundef %.0.lcssa58, i64 noundef %39) #16
  %41 = add nsw i64 %.030.lcssa57, -1
  store i64 %41, ptr %2, align 8, !tbaa !76
  store ptr %40, ptr %3, align 8, !tbaa !77
  ret void
}